target datalayout = "e-m:e-p270:32:32-p271:32:32-p272:64:64-i64:64-i128:128-f80:128-n8:16:32:64-S128"
target triple = "x86_64-pc-linux-gnu"

%struct.tng_trajectory = type { ptr, ptr, i64, ptr, ptr, ptr, ptr, ptr, ptr, i8, i8, ptr, ptr, ptr, ptr, ptr, ptr, ptr, ptr, ptr, i64, i64, i8, i64, i64, i64, double, i64, ptr, ptr, i64, i64, i64, i64, i64, %struct.tng_trajectory_frame_set, i64, i64, i64, i32, ptr, i32, ptr, ptr, ptr, double }
%struct.tng_trajectory_frame_set = type { i64, ptr, i64, i64, i64, i64, ptr, i64, i64, i64, i64, i64, i64, i64, double, i32, ptr, i32, ptr }
%struct.tng_molecule = type { i64, i64, i64, i64, i64, i64, ptr, ptr, ptr, ptr, ptr }

; Function Attrs: nounwind uwtable
define i32 @tng_molecule_of_index_get(ptr noundef %0, i64 noundef %1, ptr noundef %2) #0 {
  %4 = alloca i32, align 4
  %5 = alloca ptr, align 8
  %6 = alloca i64, align 8
  %7 = alloca ptr, align 8
  store ptr %0, ptr %5, align 8, !tbaa !3
  store i64 %1, ptr %6, align 8, !tbaa !26
  store ptr %2, ptr %7, align 8, !tbaa !30
  %8 = load i64, ptr %6, align 8, !tbaa !26
  %9 = load ptr, ptr %5, align 8, !tbaa !3
  %10 = getelementptr inbounds nuw %struct.tng_trajectory, ptr %9, i32 0, i32 27
  %11 = load i64, ptr %10, align 8, !tbaa !32
  %12 = icmp sge i64 %8, %11
  br i1 %12, label %13, label %15

13:                                               ; preds = %3
  %14 = load ptr, ptr %7, align 8, !tbaa !30
  store ptr null, ptr %14, align 8, !tbaa !45
  store i32 1, ptr %4, align 4
  br label %22

15:                                               ; preds = %3
  %16 = load ptr, ptr %5, align 8, !tbaa !3
  %17 = getelementptr inbounds nuw %struct.tng_trajectory, ptr %16, i32 0, i32 28
  %18 = load ptr, ptr %17, align 8, !tbaa !40
  %19 = load i64, ptr %6, align 8, !tbaa !26
  %20 = getelementptr inbounds %struct.tng_molecule, ptr %18, i64 %19
  %21 = load ptr, ptr %7, align 8, !tbaa !30
  store ptr %20, ptr %21, align 8, !tbaa !45
  store i32 0, ptr %4, align 4
  br label %22

22:                                               ; preds = %15, %13
  %23 = load i32, ptr %4, align 4
  ret i32 %23
}