; Function Attrs: mustprogress nofree norecurse nosync nounwind willreturn memory(argmem: readwrite) uwtable
define range(i32 0, 2) i32 @tng_molecule_of_index_get(ptr noundef readonly captures(none) %0, i64 noundef %1, ptr noundef writeonly captures(none) initializes((0, 8)) %2) local_unnamed_addr #0 {
  %4 = getelementptr inbounds nuw i8, ptr %0, i64 208
  %5 = load i64, ptr %4, align 8, !tbaa !19
  %.not = icmp slt i64 %1, %5
  br i1 %.not, label %6, label %10

6:                                                ; preds = %3
  %7 = getelementptr inbounds nuw i8, ptr %0, i64 216
  %8 = load ptr, ptr %7, align 8, !tbaa !28
  %9 = getelementptr inbounds %struct.tng_molecule, ptr %8, i64 %1
  br label %10

10:                                               ; preds = %3, %6
  %storemerge = phi ptr [ %9, %6 ], [ null, %3 ]
  %.0 = phi i32 [ 0, %6 ], [ 1, %3 ]
  store ptr %storemerge, ptr %2, align 8, !tbaa !35
  ret i32 %.0
}